target datalayout = "e-m:e-p270:32:32-p271:32:32-p272:64:64-i64:64-i128:128-f80:128-n8:16:32:64-S128"
target triple = "x86_64-pc-linux-gnu"

%struct.redisServer = type { i32, i64, ptr, ptr, ptr, i32, i32, i32, i32, i32, ptr, ptr, ptr, ptr, ptr, i32, i32, i32, i32, i64, i32, i32, i32, i32, ptr, i32, i32, [41 x i8], i32, i64, i32, i32, i32, ptr, ptr, i32, i32, i64, ptr, ptr, ptr, ptr, [2 x i32], i32, i32, i32, i32, i32, i32, [16 x ptr], i32, ptr, ptr, i32, [8 x %struct.connListener], i32, %struct.connListener, ptr, ptr, ptr, ptr, ptr, ptr, ptr, ptr, ptr, ptr, i32, ptr, i32, ptr, [3 x %struct.pause_event], [256 x i8], ptr, i64, i32, i32, [128 x i32], i32, i32, i64, i32, i32, i32, i32, i32, i64, i64, i64, i64, i64, i64, i64, i64, i64, i64, double, i64, i64, i64, i64, i64, i64, i64, i64, i64, i64, i64, i64, i64, i64, i64, i64, i64, i64, i64, i64, i64, double, i64, i64, i64, i64, i64, ptr, i64, i64, i64, %struct.malloc_stats, i64, i64, i64, i64, i64, i64, i64, i64, i64, i64, i64, i64, double, [4 x i64], i64, i64, i64, i64, [128 x i64], [128 x i64], i64, i64, [7 x %struct.anon], i64, i64, i64, i64, i64, i64, [4 x %struct.durationStats], i32, i32, i32, i32, i32, i32, i32, i32, i32, i32, i32, i32, i64, i32, i32, i32, i32, i64, i64, i32, i32, i32, i32, i32, ptr, [3 x %struct.clientBufferLimitsConfig], i32, i32, i32, ptr, i32, i32, i32, i32, i32, i32, ptr, ptr, i32, i32, i64, i64, i64, i64, i64, i32, i32, ptr, i32, i32, i64, i64, i64, i64, i64, i32, i32, i64, i32, i32, i32, i32, i32, i32, i32, i32, ptr, i32, i64, i64, i64, i64, i32, ptr, i32, ptr, i32, i32, i32, i64, i64, i64, i64, i32, i32, i32, i32, i32, i32, ptr, i32, i32, ptr, i32, i32, i32, [2 x i32], i32, %struct.redisOpArray, i32, ptr, i32, ptr, i32, i32, i32, i32, i32, i32, i32, [41 x i8], [41 x i8], i64, i64, i64, i64, i32, i32, ptr, i64, i64, %struct.replDataBuf, i64, i64, i32, i32, i32, i32, i32, i32, i32, i32, i32, i64, ptr, i64, ptr, ptr, ptr, i32, i32, ptr, ptr, i32, i32, i32, i64, i64, i64, i64, ptr, ptr, i32, ptr, i64, i32, i32, i32, i64, i32, i32, i32, i32, ptr, i32, i32, [41 x i8], i64, i32, ptr, i32, i32, i64, i64, i32, i32, i32, i32, i32, i64, [3 x i32], i32, i32, i32, [10 x i32], ptr, ptr, i32, i64, ptr, ptr, i32, i32, i32, i32, i64, i64, i64, i64, i64, i64, i64, i64, i64, i64, i32, i32, i64, i64, i32, i64, i64, i64, i64, i64, ptr, ptr, i32, ptr, i32, i32, i32, i32, i64, i64, ptr, ptr, i32, i32, i32, i32, i32, ptr, ptr, ptr, i32, i32, i32, i32, i32, i32, i32, i64, i32, i32, i64, i32, i32, i32, i32, i32, i32, i32, i64, ptr, ptr, i64, ptr, i32, %struct.aclInfo, i32, i64, i32, i32, i32, %struct.redisTLSContextConfig, ptr, ptr, ptr, ptr, ptr, i64, i32, ptr, i32, i32, i32, i64, i32, ptr }
%struct.connListener = type { [16 x i32], i32, ptr, i32, i32, ptr, ptr }
%struct.pause_event = type { i32, i64 }
%struct.malloc_stats = type { i64, i64, i64, i64, i64, i64, i64, i64, i64, i64, i64 }
%struct.anon = type { i64, i64, [16 x i64], i32 }
%struct.durationStats = type { i64, i64, i64 }
%struct.clientBufferLimitsConfig = type { i64, i64, i64 }
%struct.redisOpArray = type { ptr, i32, i32 }
%struct.replDataBuf = type { ptr, i64, i64, i64, i64 }
%struct.aclInfo = type { i64, i64, i64, i64 }
%struct.redisTLSContextConfig = type { ptr, ptr, ptr, ptr, ptr, ptr, ptr, ptr, ptr, ptr, ptr, ptr, i32, i32, i32, i32 }

@server = external global %struct.redisServer, align 8

; Function Attrs: nounwind uwtable
define dso_local void @durationAddSample(i32 noundef %0, i64 noundef %1) #0 {
  %3 = alloca i32, align 4
  %4 = alloca i64, align 8
  %5 = alloca ptr, align 8
  store i32 %0, ptr %3, align 4, !tbaa !48
  store i64 %1, ptr %4, align 8, !tbaa !44
  %6 = load i32, ptr %3, align 4, !tbaa !48
  %7 = icmp sge i32 %6, 4
  br i1 %7, label %8, label %9

8:                                                ; preds = %2
  br label %32

9:                                                ; preds = %2
  call void @llvm.lifetime.start.p0(i64 8, ptr %5) #10
  %10 = load i32, ptr %3, align 4, !tbaa !48
  %11 = sext i32 %10 to i64
  %12 = getelementptr inbounds [4 x %struct.durationStats], ptr getelementptr inbounds nuw (%struct.redisServer, ptr @server, i32 0, i32 158), i64 0, i64 %11
  store ptr %12, ptr %5, align 8, !tbaa !129
  %13 = load ptr, ptr %5, align 8, !tbaa !129
  %14 = getelementptr inbounds nuw %struct.durationStats, ptr %13, i32 0, i32 0
  %15 = load i64, ptr %14, align 8, !tbaa !131
  %16 = add i64 %15, 1
  store i64 %16, ptr %14, align 8, !tbaa !131
  %17 = load i64, ptr %4, align 8, !tbaa !44
  %18 = load ptr, ptr %5, align 8, !tbaa !129
  %19 = getelementptr inbounds nuw %struct.durationStats, ptr %18, i32 0, i32 1
  %20 = load i64, ptr %19, align 8, !tbaa !133
  %21 = add i64 %20, %17
  store i64 %21, ptr %19, align 8, !tbaa !133
  %22 = load i64, ptr %4, align 8, !tbaa !44
  %23 = load ptr, ptr %5, align 8, !tbaa !129
  %24 = getelementptr inbounds nuw %struct.durationStats, ptr %23, i32 0, i32 2
  %25 = load i64, ptr %24, align 8, !tbaa !134
  %26 = icmp ugt i64 %22, %25
  br i1 %26, label %27, label %31

27:                                               ; preds = %9
  %28 = load i64, ptr %4, align 8, !tbaa !44
  %29 = load ptr, ptr %5, align 8, !tbaa !129
  %30 = getelementptr inbounds nuw %struct.durationStats, ptr %29, i32 0, i32 2
  store i64 %28, ptr %30, align 8, !tbaa !134
  br label %31

31:                                               ; preds = %27, %9
  call void @llvm.lifetime.end.p0(i64 8, ptr %5) #10
  br label %32

32:                                               ; preds = %31, %8
  ret void
}