; Function Attrs: mustprogress nofree norecurse nosync nounwind willreturn memory(readwrite, argmem: none, inaccessiblemem: none) uwtable
define dso_local void @durationAddSample(i32 noundef %0, i64 noundef %1) local_unnamed_addr #11 {
  %3 = icmp sgt i32 %0, 3
  br i1 %3, label %16, label %4

4:                                                ; preds = %2
  %5 = sext i32 %0 to i64
  %6 = getelementptr inbounds [4 x %struct.durationStats], ptr getelementptr inbounds nuw (i8, ptr @server, i64 6192), i64 0, i64 %5
  %7 = load i64, ptr %6, align 8, !tbaa !108
  %8 = add i64 %7, 1
  store i64 %8, ptr %6, align 8, !tbaa !108
  %9 = getelementptr inbounds nuw i8, ptr %6, i64 8
  %10 = load i64, ptr %9, align 8, !tbaa !110
  %11 = add i64 %10, %1
  store i64 %11, ptr %9, align 8, !tbaa !110
  %12 = getelementptr inbounds nuw i8, ptr %6, i64 16
  %13 = load i64, ptr %12, align 8, !tbaa !111
  %14 = icmp ugt i64 %1, %13
  br i1 %14, label %15, label %16

15:                                               ; preds = %4
  store i64 %1, ptr %12, align 8, !tbaa !111
  br label %16

16:                                               ; preds = %4, %15, %2
  ret void
}